; Function Attrs: mustprogress uwtable
define internal noundef zeroext i1 @"_ZNSt17_Function_handlerIFvRKN32pxrInternal_v0_24__pxrReserved__7SdfPathEEZNS0_24Usd_GenerateClipManifestERKSt6vectorINS0_9TfWeakPtrINS0_8SdfLayerEEESaIS8_EES3_RKNSt7__cxx1112basic_stringIcSt11char_traitsIcESaIcEEEPKS5_IdSaIdEEE3$_1E10_M_managerERSt9_Any_dataRKSR_St18_Manager_operation"(ptr noundef nonnull align 8 captures(none) dereferenceable(16) %0, ptr noundef nonnull readonly align 8 captures(none) dereferenceable(16) %1, i32 noundef %2) #0 align 2 {
  switch i32 %2, label %"_ZNSt14_Function_base13_Base_managerIZN32pxrInternal_v0_24__pxrReserved__24Usd_GenerateClipManifestERKSt6vectorINS1_9TfWeakPtrINS1_8SdfLayerEEESaIS5_EERKNS1_7SdfPathERKNSt7__cxx1112basic_stringIcSt11char_traitsIcESaIcEEEPKS2_IdSaIdEEE3$_1E10_M_managerERSt9_Any_dataRKSR_St18_Manager_operation.exit" [
    i32 0, label %4
    i32 1, label %5
    i32 3, label %8
    i32 2, label %6
  ]

4:                                                ; preds = %3
  store ptr @"_ZTIZN32pxrInternal_v0_24__pxrReserved__24Usd_GenerateClipManifestERKSt6vectorINS_9TfWeakPtrINS_8SdfLayerEEESaIS3_EERKNS_7SdfPathERKNSt7__cxx1112basic_stringIcSt11char_traitsIcESaIcEEEPKS0_IdSaIdEEE3$_1", ptr %0, align 8
  br label %"_ZNSt14_Function_base13_Base_managerIZN32pxrInternal_v0_24__pxrReserved__24Usd_GenerateClipManifestERKSt6vectorINS1_9TfWeakPtrINS1_8SdfLayerEEESaIS5_EERKNS1_7SdfPathERKNSt7__cxx1112basic_stringIcSt11char_traitsIcESaIcEEEPKS2_IdSaIdEEE3$_1E10_M_managerERSt9_Any_dataRKSR_St18_Manager_operation.exit"

5:                                                ; preds = %3
  %.val = load ptr, ptr %1, align 8
  store ptr %.val, ptr %0, align 8
  br label %"_ZNSt14_Function_base13_Base_managerIZN32pxrInternal_v0_24__pxrReserved__24Usd_GenerateClipManifestERKSt6vectorINS1_9TfWeakPtrINS1_8SdfLayerEEESaIS5_EERKNS1_7SdfPathERKNSt7__cxx1112basic_stringIcSt11char_traitsIcESaIcEEEPKS2_IdSaIdEEE3$_1E10_M_managerERSt9_Any_dataRKSR_St18_Manager_operation.exit"

6:                                                ; preds = %3
  %.val6 = load ptr, ptr %1, align 8
  %7 = tail call noalias noundef nonnull dereferenceable(24) ptr @_Znwm(i64 noundef 24) #21
  tail call void @llvm.memcpy.p0.p0.i64(ptr noundef nonnull align 16 dereferenceable(24) %7, ptr noundef nonnull readonly align 8 dereferenceable(24) %.val6, i64 24, i1 false)
  store ptr %7, ptr %0, align 8
  br label %"_ZNSt14_Function_base13_Base_managerIZN32pxrInternal_v0_24__pxrReserved__24Usd_GenerateClipManifestERKSt6vectorINS1_9TfWeakPtrINS1_8SdfLayerEEESaIS5_EERKNS1_7SdfPathERKNSt7__cxx1112basic_stringIcSt11char_traitsIcESaIcEEEPKS2_IdSaIdEEE3$_1E10_M_managerERSt9_Any_dataRKSR_St18_Manager_operation.exit"

8:                                                ; preds = %3
  %.val7.i = load ptr, ptr %0, align 8
  %9 = icmp eq ptr %.val7.i, null
  br i1 %9, label %"_ZNSt14_Function_base13_Base_managerIZN32pxrInternal_v0_24__pxrReserved__24Usd_GenerateClipManifestERKSt6vectorINS1_9TfWeakPtrINS1_8SdfLayerEEESaIS5_EERKNS1_7SdfPathERKNSt7__cxx1112basic_stringIcSt11char_traitsIcESaIcEEEPKS2_IdSaIdEEE3$_1E10_M_managerERSt9_Any_dataRKSR_St18_Manager_operation.exit", label %10

10:                                               ; preds = %8
  tail call void @_ZdlPvm(ptr noundef nonnull %.val7.i, i64 noundef 24) #22
  br label %"_ZNSt14_Function_base13_Base_managerIZN32pxrInternal_v0_24__pxrReserved__24Usd_GenerateClipManifestERKSt6vectorINS1_9TfWeakPtrINS1_8SdfLayerEEESaIS5_EERKNS1_7SdfPathERKNSt7__cxx1112basic_stringIcSt11char_traitsIcESaIcEEEPKS2_IdSaIdEEE3$_1E10_M_managerERSt9_Any_dataRKSR_St18_Manager_operation.exit"

"_ZNSt14_Function_base13_Base_managerIZN32pxrInternal_v0_24__pxrReserved__24Usd_GenerateClipManifestERKSt6vectorINS1_9TfWeakPtrINS1_8SdfLayerEEESaIS5_EERKNS1_7SdfPathERKNSt7__cxx1112basic_stringIcSt11char_traitsIcESaIcEEEPKS2_IdSaIdEEE3$_1E10_M_managerERSt9_Any_dataRKSR_St18_Manager_operation.exit": ; preds = %3, %10, %8, %6, %5, %4
  ret i1 false
}